; Function Attrs: nounwind uwtable
define void @Wlc_NtkSetRefs(ptr noundef captures(none) %0) local_unnamed_addr #3 {
  %2 = getelementptr inbounds nuw i8, ptr %0, i64 800
  %3 = getelementptr i8, ptr %0, i64 648
  %.val28 = load i32, ptr %3, align 8
  %4 = load i32, ptr %2, align 8
  %.not.i.i = icmp slt i32 %4, %.val28
  br i1 %.not.i.i, label %5, label %Vec_IntGrow.exit.i

5:                                                ; preds = %1
  %6 = getelementptr inbounds nuw i8, ptr %0, i64 808
  %7 = load ptr, ptr %6, align 8
  %.not9.i.i = icmp eq ptr %7, null
  %8 = sext i32 %.val28 to i64
  %9 = shl nsw i64 %8, 2
  br i1 %.not9.i.i, label %12, label %10

10:                                               ; preds = %5
  %11 = tail call ptr @realloc(ptr noundef nonnull %7, i64 noundef %9) #27
  br label %14

12:                                               ; preds = %5
  %13 = tail call noalias ptr @malloc(i64 noundef %9) #26
  br label %14

14:                                               ; preds = %12, %10
  %15 = phi ptr [ %11, %10 ], [ %13, %12 ]
  store ptr %15, ptr %6, align 8
  store i32 %.val28, ptr %2, align 8
  br label %Vec_IntGrow.exit.i

Vec_IntGrow.exit.i:                               ; preds = %14, %1
  %16 = icmp sgt i32 %.val28, 0
  br i1 %16, label %.lr.ph.i, label %Vec_IntFill.exit

.lr.ph.i:                                         ; preds = %Vec_IntGrow.exit.i
  %17 = getelementptr inbounds nuw i8, ptr %0, i64 808
  %wide.trip.count.i = zext nneg i32 %.val28 to i64
  br label %18

18:                                               ; preds = %18, %.lr.ph.i
  %indvars.iv.i = phi i64 [ 0, %.lr.ph.i ], [ %indvars.iv.next.i, %18 ]
  %19 = load ptr, ptr %17, align 8
  %20 = getelementptr inbounds nuw i32, ptr %19, i64 %indvars.iv.i
  store i32 0, ptr %20, align 4
  %indvars.iv.next.i = add nuw nsw i64 %indvars.iv.i, 1
  %exitcond.not.i = icmp eq i64 %indvars.iv.next.i, %wide.trip.count.i
  br i1 %exitcond.not.i, label %Vec_IntFill.exit, label %18, !llvm.loop !7

Vec_IntFill.exit:                                 ; preds = %18, %Vec_IntGrow.exit.i
  %21 = getelementptr inbounds nuw i8, ptr %0, i64 804
  store i32 %.val28, ptr %21, align 4
  %.val2738 = load i32, ptr %3, align 8
  %22 = icmp sgt i32 %.val2738, 1
  br i1 %22, label %.lr.ph40, label %.critedge.preheader

.lr.ph40:                                         ; preds = %Vec_IntFill.exit
  %23 = getelementptr i8, ptr %0, i64 640
  %24 = getelementptr i8, ptr %0, i64 808
  br label %29

.critedge.preheader:                              ; preds = %.critedge2, %Vec_IntFill.exit
  %25 = getelementptr i8, ptr %0, i64 68
  %.val3241 = load i32, ptr %25, align 4
  %26 = icmp sgt i32 %.val3241, 0
  br i1 %26, label %.lr.ph43, label %.critedge4

.lr.ph43:                                         ; preds = %.critedge.preheader
  %27 = getelementptr i8, ptr %0, i64 72
  %28 = getelementptr i8, ptr %0, i64 808
  br label %.critedge

29:                                               ; preds = %.lr.ph40, %.critedge2
  %.val2751 = phi i32 [ %.val2738, %.lr.ph40 ], [ %.val27, %.critedge2 ]
  %indvars.iv45 = phi i64 [ 1, %.lr.ph40 ], [ %indvars.iv.next46, %.critedge2 ]
  %.val26 = load ptr, ptr %23, align 8
  %30 = getelementptr inbounds nuw %struct.Wlc_Obj_t_, ptr %.val26, i64 %indvars.iv45
  %31 = getelementptr i8, ptr %30, i64 4
  %.val2935 = load i32, ptr %31, align 4
  %32 = icmp sgt i32 %.val2935, 0
  br i1 %32, label %.lr.ph, label %.critedge2

.lr.ph:                                           ; preds = %29
  %33 = getelementptr inbounds nuw i8, ptr %30, i64 16
  br label %34

34:                                               ; preds = %.lr.ph, %Wlc_ObjFaninId.exit
  %indvars.iv = phi i64 [ 0, %.lr.ph ], [ %indvars.iv.next, %Wlc_ObjFaninId.exit ]
  %.val2937 = phi i32 [ %.val2935, %.lr.ph ], [ %.val29, %Wlc_ObjFaninId.exit ]
  %35 = icmp ugt i32 %.val2937, 2
  br i1 %35, label %Wlc_ObjHasArray.exit.thread.i.i, label %36

36:                                               ; preds = %34
  %37 = load i16, ptr %30, align 8
  %38 = and i16 %37, 63
  switch i16 %38, label %Wlc_ObjFaninId.exit [
    i16 6, label %Wlc_ObjHasArray.exit.thread.i.i
    i16 22, label %Wlc_ObjHasArray.exit.thread.i.i
  ]

Wlc_ObjHasArray.exit.thread.i.i:                  ; preds = %36, %36, %34
  %39 = load ptr, ptr %33, align 8
  br label %Wlc_ObjFaninId.exit

Wlc_ObjFaninId.exit:                              ; preds = %36, %Wlc_ObjHasArray.exit.thread.i.i
  %40 = phi ptr [ %39, %Wlc_ObjHasArray.exit.thread.i.i ], [ %33, %36 ]
  %41 = getelementptr inbounds nuw i32, ptr %40, i64 %indvars.iv
  %42 = load i32, ptr %41, align 4
  %.val31 = load ptr, ptr %24, align 8
  %43 = sext i32 %42 to i64
  %44 = getelementptr inbounds i32, ptr %.val31, i64 %43
  %45 = load i32, ptr %44, align 4
  %46 = add nsw i32 %45, 1
  store i32 %46, ptr %44, align 4
  %indvars.iv.next = add nuw nsw i64 %indvars.iv, 1
  %.val29 = load i32, ptr %31, align 4
  %47 = sext i32 %.val29 to i64
  %48 = icmp slt i64 %indvars.iv.next, %47
  br i1 %48, label %34, label %.critedge2.loopexit, !llvm.loop !84

.critedge2.loopexit:                              ; preds = %Wlc_ObjFaninId.exit
  %.val27.pre = load i32, ptr %3, align 8
  br label %.critedge2

.critedge2:                                       ; preds = %.critedge2.loopexit, %29
  %.val27 = phi i32 [ %.val27.pre, %.critedge2.loopexit ], [ %.val2751, %29 ]
  %indvars.iv.next46 = add nuw nsw i64 %indvars.iv45, 1
  %49 = sext i32 %.val27 to i64
  %50 = icmp slt i64 %indvars.iv.next46, %49
  br i1 %50, label %29, label %.critedge.preheader, !llvm.loop !85

.critedge:                                        ; preds = %.lr.ph43, %.critedge
  %indvars.iv48 = phi i64 [ 0, %.lr.ph43 ], [ %indvars.iv.next49, %.critedge ]
  %.val33 = load ptr, ptr %27, align 8
  %51 = getelementptr inbounds nuw i32, ptr %.val33, i64 %indvars.iv48
  %52 = load i32, ptr %51, align 4
  %.val30 = load ptr, ptr %28, align 8
  %53 = sext i32 %52 to i64
  %54 = getelementptr inbounds i32, ptr %.val30, i64 %53
  %55 = load i32, ptr %54, align 4
  %56 = add nsw i32 %55, 1
  store i32 %56, ptr %54, align 4
  %indvars.iv.next49 = add nuw nsw i64 %indvars.iv48, 1
  %.val32 = load i32, ptr %25, align 4
  %57 = sext i32 %.val32 to i64
  %58 = icmp slt i64 %indvars.iv.next49, %57
  br i1 %58, label %.critedge, label %.critedge4, !llvm.loop !86

.critedge4:                                       ; preds = %.critedge, %.critedge.preheader
  ret void
}